; Function Attrs: nounwind uwtable
define ptr @Gia_ManFindPoPartition(ptr noundef %0, i32 noundef %1, i32 noundef %2, i32 noundef %3, i32 noundef %4, ptr noundef writeonly %5) local_unnamed_addr #0 {
  %7 = alloca %struct.timespec, align 8
  %8 = alloca %struct.timespec, align 8
  call void @llvm.lifetime.start.p0(i64 16, ptr nonnull %8) #23
  %9 = call i32 @clock_gettime(i32 noundef 1, ptr noundef nonnull %8) #23
  %10 = icmp slt i32 %9, 0
  br i1 %10, label %Abc_Clock.exit, label %11

11:                                               ; preds = %6
  %12 = load i64, ptr %8, align 8, !tbaa !106
  %.neg35 = mul i64 %12, -1000000
  %13 = getelementptr inbounds nuw i8, ptr %8, i64 8
  %14 = load i64, ptr %13, align 8, !tbaa !108
  %.neg = sdiv i64 %14, -1000
  %.neg36 = add i64 %.neg, %.neg35
  br label %Abc_Clock.exit

Abc_Clock.exit:                                   ; preds = %6, %11
  %.0.i.neg = phi i64 [ %.neg36, %11 ], [ 1, %6 ]
  call void @llvm.lifetime.end.p0(i64 16, ptr nonnull %8) #23
  %15 = call ptr @Gia_ManFindPivots(ptr noundef %0, i32 noundef %1, i32 noundef %2, i32 noundef %4)
  %16 = call ptr @Gia_ManDeriveSigns(ptr noundef %0, ptr noundef %15, i32 noundef %4)
  %17 = getelementptr inbounds nuw i8, ptr %15, i64 8
  %18 = load ptr, ptr %17, align 8, !tbaa !35
  %.not.i = icmp eq ptr %18, null
  br i1 %.not.i, label %Vec_IntFree.exit, label %19

19:                                               ; preds = %Abc_Clock.exit
  call void @free(ptr noundef nonnull %18) #23
  br label %Vec_IntFree.exit

Vec_IntFree.exit:                                 ; preds = %Abc_Clock.exit, %19
  call void @free(ptr noundef nonnull %15) #23
  %20 = call ptr @Gia_ManHashOutputs(ptr noundef %0, ptr noundef %16, i32 noundef %4)
  %21 = getelementptr inbounds nuw i8, ptr %16, i64 8
  %22 = load ptr, ptr %21, align 8, !tbaa !65
  %.not.i31 = icmp eq ptr %22, null
  br i1 %.not.i31, label %Vec_WrdFree.exit, label %23

23:                                               ; preds = %Vec_IntFree.exit
  call void @free(ptr noundef nonnull %22) #23
  br label %Vec_WrdFree.exit

Vec_WrdFree.exit:                                 ; preds = %Vec_IntFree.exit, %23
  call void @free(ptr noundef nonnull %16) #23
  %.not = icmp eq i32 %3, 0
  br i1 %.not, label %29, label %24

24:                                               ; preds = %Vec_WrdFree.exit
  %25 = getelementptr i8, ptr %20, i64 8
  %.val30 = load ptr, ptr %25, align 8, !tbaa !102
  %.val30.val = load ptr, ptr %.val30, align 8, !tbaa !97
  %26 = getelementptr i8, ptr %.val30.val, i64 8
  %.val28 = load ptr, ptr %26, align 8, !tbaa !35
  %27 = getelementptr i8, ptr %.val30.val, i64 4
  %.val = load i32, ptr %27, align 4, !tbaa !33
  %28 = call ptr @Gia_ManDupCones(ptr noundef %0, ptr noundef %.val28, i32 noundef %.val, i32 noundef 1) #23
  br label %29

29:                                               ; preds = %24, %Vec_WrdFree.exit
  %.0 = phi ptr [ %28, %24 ], [ null, %Vec_WrdFree.exit ]
  %.not25 = icmp eq ptr %5, null
  br i1 %.not25, label %49, label %30

30:                                               ; preds = %29
  store ptr %20, ptr %5, align 8, !tbaa !109
  %31 = getelementptr i8, ptr %0, i64 16
  %.val26 = load i32, ptr %31, align 8, !tbaa !37
  %32 = getelementptr i8, ptr %0, i64 72
  %.val27 = load ptr, ptr %32, align 8, !tbaa !39
  %33 = getelementptr i8, ptr %.val27, i64 4
  %.val27.val = load i32, ptr %33, align 4, !tbaa !33
  %34 = sub nsw i32 %.val27.val, %.val26
  %35 = getelementptr i8, ptr %20, i64 4
  %.val29 = load i32, ptr %35, align 4, !tbaa !93
  %36 = call i32 (ptr, ...) @printf(ptr noundef nonnull dereferenceable(1) @.str.12, i32 noundef %34, i32 noundef %.val29)
  call void @llvm.lifetime.start.p0(i64 16, ptr nonnull %7) #23
  %37 = call i32 @clock_gettime(i32 noundef 1, ptr noundef nonnull %7) #23
  %38 = icmp slt i32 %37, 0
  br i1 %38, label %Abc_Clock.exit33, label %39

39:                                               ; preds = %30
  %40 = load i64, ptr %7, align 8, !tbaa !106
  %41 = mul nsw i64 %40, 1000000
  %42 = getelementptr inbounds nuw i8, ptr %7, i64 8
  %43 = load i64, ptr %42, align 8, !tbaa !108
  %44 = sdiv i64 %43, 1000
  %45 = add nsw i64 %44, %41
  br label %Abc_Clock.exit33

Abc_Clock.exit33:                                 ; preds = %30, %39
  %.0.i32 = phi i64 [ %45, %39 ], [ -1, %30 ]
  call void @llvm.lifetime.end.p0(i64 16, ptr nonnull %7) #23
  %46 = add i64 %.0.i32, %.0.i.neg
  call void (i32, ptr, ...) @Abc_Print(i32 poison, ptr noundef nonnull @.str.15, ptr noundef nonnull @.str.13)
  %47 = sitofp i64 %46 to double
  %48 = fdiv double %47, 1.000000e+06
  call void (i32, ptr, ...) @Abc_Print(i32 poison, ptr noundef nonnull @.str.16, double noundef %48)
  br label %63

49:                                               ; preds = %29
  %50 = getelementptr i8, ptr %20, i64 4
  %.val11.i = load i32, ptr %50, align 4, !tbaa !100
  %51 = icmp sgt i32 %.val11.i, 0
  %52 = getelementptr i8, ptr %20, i64 8
  %.val8.i.pre = load ptr, ptr %52, align 8, !tbaa !97
  br i1 %51, label %.lr.ph.i, label %.critedge.i

.lr.ph.i:                                         ; preds = %49
  %53 = zext nneg i32 %.val11.i to i64
  br label %54

54:                                               ; preds = %61, %.lr.ph.i
  %indvars.iv.i = phi i64 [ 0, %.lr.ph.i ], [ %indvars.iv.next.i, %61 ]
  %55 = getelementptr inbounds nuw ptr, ptr %.val8.i.pre, i64 %indvars.iv.i
  %56 = load ptr, ptr %55, align 8, !tbaa !97
  %.not.i34 = icmp eq ptr %56, null
  br i1 %.not.i34, label %61, label %57

57:                                               ; preds = %54
  %58 = getelementptr inbounds nuw i8, ptr %56, i64 8
  %59 = load ptr, ptr %58, align 8, !tbaa !96
  %.not.i.i = icmp eq ptr %59, null
  br i1 %.not.i.i, label %Vec_PtrFree.exit.i, label %60

60:                                               ; preds = %57
  call void @free(ptr noundef nonnull %59) #23
  br label %Vec_PtrFree.exit.i

Vec_PtrFree.exit.i:                               ; preds = %60, %57
  call void @free(ptr noundef nonnull %56) #23
  br label %61

61:                                               ; preds = %Vec_PtrFree.exit.i, %54
  %indvars.iv.next.i = add nuw nsw i64 %indvars.iv.i, 1
  %62 = icmp samesign ult i64 %indvars.iv.next.i, %53
  br i1 %62, label %54, label %.critedge.i.thread, !llvm.loop !110

.critedge.i:                                      ; preds = %49
  %.not.i9.i = icmp eq ptr %.val8.i.pre, null
  br i1 %.not.i9.i, label %Vec_VecFree.exit, label %.critedge.i.thread

.critedge.i.thread:                               ; preds = %61, %.critedge.i
  call void @free(ptr noundef nonnull %.val8.i.pre) #23
  br label %Vec_VecFree.exit

Vec_VecFree.exit:                                 ; preds = %.critedge.i, %.critedge.i.thread
  call void @free(ptr noundef nonnull %20) #23
  br label %63

63:                                               ; preds = %Vec_VecFree.exit, %Abc_Clock.exit33
  ret ptr %.0
}